ARM GAS  C:\Users\bernw\AppData\Local\Temp\ccC7t2Sg.s 			page 1


   1              		.syntax unified
   2              		.cpu cortex-m3
   3              		.fpu softvfp
   4              		.eabi_attribute 20, 1
   5              		.eabi_attribute 21, 1
   6              		.eabi_attribute 23, 3
   7              		.eabi_attribute 24, 1
   8              		.eabi_attribute 25, 1
   9              		.eabi_attribute 26, 1
  10              		.eabi_attribute 30, 1
  11              		.eabi_attribute 34, 1
  12              		.eabi_attribute 18, 4
  13              		.thumb
  14              		.syntax unified
  15              		.file	"main.c"
  16              		.text
  17              	.Ltext0:
  18              		.cfi_sections	.debug_frame
  19              		.section	.text.ButtonIsPressed,"ax",%progbits
  20              		.align	2
  21              		.global	ButtonIsPressed
  22              		.thumb
  23              		.thumb_func
  24              		.type	ButtonIsPressed, %function
  25              	ButtonIsPressed:
  26              	.LFB63:
  27              		.file 1 "main.c"
   1:main.c        **** /* ========================================
   2:main.c        **** 
   3:main.c        **** Tentamen Embedded Systems 2
   4:main.c        **** Datum: 6 november
   5:main.c        **** Tijd: 14:30 - 17:00
   6:main.c        **** 
   7:main.c        **** 
   8:main.c        **** Inleiding
   9:main.c        **** =========
  10:main.c        **** In deze tentamenopgave ga je aan de slag met een systeem om de rem- en
  11:main.c        **** achterlichten van een auto aan te sturen. De remlichten worden hierbij
  12:main.c        **** voorgesteld met het blauwe LEDje die op het PSoC bordje zit ingebouwd.
  13:main.c        **** Het rempedaal is de button die op het bordje zit. Voor de normale
  14:main.c        **** achterlichten van de auto moet je een extra LED aansluiten op het bordje.
  15:main.c        **** 
  16:main.c        **** BELANGRIJK: LEVER ALS JE KLAAR BENT EEN ZIP FILE IN VAN JE COMPLETE PROJECT!!
  17:main.c        **** 
  18:main.c        **** Verpak dus de directory jouwproject.cysdn in een zipfile en lever die in op moodle.
  19:main.c        **** 
  20:main.c        **** Succes!
  21:main.c        **** 
  22:main.c        **** 
  23:main.c        **** Opgaven:
  24:main.c        **** 
  25:main.c        **** Opgave 1: Getting started
  26:main.c        **** ========
  27:main.c        **** 1a:
  28:main.c        **** Maak een nieuw (leeg) project aan voor je bordje. Let op dat je de
  29:main.c        **** correcte target hardware gebruikt (jouw type bordje). Noem dit project
  30:main.c        **** "RemlichtTentamen" en kijk goed waar dit opgeslagen wordt. Kopieer de inhoud
ARM GAS  C:\Users\bernw\AppData\Local\Temp\ccC7t2Sg.s 			page 2


  31:main.c        **** van deze opgavefile in de main.c file van je project. Bouw het project en
  32:main.c        **** kijk of je het kunt runnen en debuggen.
  33:main.c        **** 
  34:main.c        **** 1b:
  35:main.c        **** Vul je naam en studentnummer in.
  36:main.c        **** NOGMAALS: Lever aan het eind een zip-file in van je complete project!
  37:main.c        **** Dus "RemlichtTentamen.cydsn.zip"
  38:main.c        **** 
  39:main.c        **** Naam: Bernward Balochie
  40:main.c        **** Studentnummer: 500753320
  41:main.c        **** 
  42:main.c        **** Opgave 2: Remlicht
  43:main.c        **** ==================
  44:main.c        **** In deze opgave ga je het basis-remlicht implementeren.
  45:main.c        **** 
  46:main.c        **** 2a:
  47:main.c        **** Maak in je topdesign een outputpin en een inputpin aan. De outputpin link
  48:main.c        **** je aan het blauwe ledje op je bordje en de input pin aan de button op je bordje
  49:main.c        **** (neem de SW1 button die middenop je bordje zit en niet de SW3 (reset)button die
  50:main.c        **** aan de rand van je bordje zit!). Configureer de inputpin als "resistive pull-up".
  51:main.c        **** 
  52:main.c        **** 2b:
  53:main.c        **** Wat betekent het dat de input pin als "resistive pull-up" is geconigureerd?
  54:main.c        **** 
  55:main.c        **** 
  56:main.c        **** Antwoord: Dat betekend dat de input pin bij de rust stand een 1 heeft, en als ie ingedukt wordt,
  57:main.c        **** krijgt ie een 0.
  58:main.c        **** 
  59:main.c        **** 2c:
  60:main.c        **** Vul onderstaande code aan zodat het ledje functioneert als remlicht: bij het
  61:main.c        **** indrukken van de button (het rempedaal) moet het ledje (je remlicht) aangaan en
  62:main.c        **** bij het loslaten weer uit.
  63:main.c        **** 
  64:main.c        **** Opgave 3: Knipperen
  65:main.c        **** ===================
  66:main.c        **** We willen nu een extra functionaliteit toevoegen om wat meer aandacht te trekken
  67:main.c        **** als er geremd wordt. Voordat de remlichten constant gaan branden willen we ze daarom
  68:main.c        **** eerst één seconde lang laten knipperen.
  69:main.c        **** 
  70:main.c        **** 3a:
  71:main.c        **** Pas de code aan zodat bij het indrukken van het rempedaal het remlicht eerst een aantal
  72:main.c        **** milliseconden (duration) met een bepaalde frequentie (BLINK_FREQUENCY) knippert. Gebruik
  73:main.c        **** hiervoor een for-loop en een delay functie.
  74:main.c        **** Test het uit door BLINK_FREQUENCY bijvoorbeeld op 5 te zetten en dan de functie aan te roepen
  75:main.c        **** met 1000 waardoor de led precies één seconde lang 5 keer aan en uit moet gaan.
  76:main.c        **** 
  77:main.c        **** 3b:
  78:main.c        **** De oplossing voor het knipperen bij opgave 3a met een loopje en de delay functie is niet de beste
  79:main.c        **** oplossing. Wat voor andere oplossing zou er mogelijk zijn? Leg uit waarom dat een betere zou zijn.
  80:main.c        **** 
  81:main.c        **** Antwoord: Een pwm gebruiken waardoor je de dutycyle mee kan aanpassen.
  82:main.c        **** 
  83:main.c        **** 
  84:main.c        **** Opgave 4: Achterlicht
  85:main.c        **** =====================
  86:main.c        **** Naast een remlicht willen we ook een gewoon achterlicht hebben. Deze moet natuurlijk wel
  87:main.c        **** minder fel branden dan een remlicht. Hiervoor ga je een PWM gebruiken.
ARM GAS  C:\Users\bernw\AppData\Local\Temp\ccC7t2Sg.s 			page 3


  88:main.c        **** 
  89:main.c        **** 4a:
  90:main.c        **** Sluit zelf nog een led aan op je bordje. Configureer een outputpin in je topdesign voor dit
  91:main.c        **** ledje en teken daar ook in hoe je het ledje hebt aangesloten.
  92:main.c        **** 
  93:main.c        **** 4b:
  94:main.c        **** Configureer een PWM in je topdesign, inclusief een ingaande clock. Sluit de uitgang van de PWM
  95:main.c        **** aan op de outputpin voor je ledje.
  96:main.c        **** 
  97:main.c        **** 4c:
  98:main.c        **** We willen het ledje op ongeveer halve sterkte laten branden zonder dat we een flikkering in
  99:main.c        **** het ledje zien. Configureer hiervoor de clock en PWM. Geef de waardes van de volgende parameters
 100:main.c        **** die je hebt geconfigureerd met een korte toelichting:
 101:main.c        **** 
 102:main.c        **** Frequentie ingaande clock: 15khz
 103:main.c        **** Resolution PWM:8-bit
 104:main.c        **** Period PWM:255
 105:main.c        **** CMP value PWM:80
 106:main.c        **** 
 107:main.c        **** Toelichting: 15khz/255 =...hertz. Met 8 bits kan ik van 0 tot 255 tellen. De compare value wordt ve
 108:main.c        **** de resolutie, als de resolutie hoger is dan de compare value, dan krijgt ie een 1, als het minder i
 109:main.c        **** Er wordt dan van 255 tot 0 geteld en iedere keer word die vergelijking gemaakt. Daarmee kan ik mijn
 110:main.c        **** toepassen.
 111:main.c        **** 
 112:main.c        **** 4d:
 113:main.c        **** Pas de code aan zodat de achterlichten aangezet worden (op halve kracht).
 114:main.c        **** 
 115:main.c        **** 
 116:main.c        **** Opgave 5: Automatisch achterlicht
 117:main.c        **** =================================
 118:main.c        **** We willen nu het systeem zo aanpassen dat de achterlichten automatisch aan en uitgezet worden
 119:main.c        **** al naar gelang het buiten licht of donker is. Hiertoe gaan we de LDR (light-dependent resistor)
 120:main.c        **** gebruiken die in het kitje zit (een klein rond schijfje waar een soort spiraaltje op getekend lijkt
 121:main.c        **** Als je deze LDR niet hebt of niet aan de praat krijgt kun je ook de met de hand regelbare weerstand
 122:main.c        **** gebruiken (levert wel minder punten op).
 123:main.c        **** 
 124:main.c        **** 5a:
 125:main.c        **** Sluit de LDR aan tussen de 5 volt en een analoge inputpin. Teken dit ook in je topdesign. Plaats en
 126:main.c        **** configureer ook een AD converter (ADC_SAR) om de waardes van de LDR in een digitale waarde om te ku
 127:main.c        **** zetten. Gebruik voor de ADC_SAR de volgende settings:
 128:main.c        **** 
 129:main.c        **** Input range: Vssa to Vdda (Single Ended)
 130:main.c        **** Reference: Internal Vref
 131:main.c        **** 
 132:main.c        **** Alternatief: sluit niet de LDR maar de regelbare weesrtand aan.
 133:main.c        **** 
 134:main.c        **** 5b:
 135:main.c        **** Vul de functie XXXX aan met code zodat de ADC uitgelezen wordt. Bepaal bijvoorbeeld
 136:main.c        **** met behulp van de debugger wat de waarden zijn die worden uitgelezen als de LDR wordt
 137:main.c        **** afgedekt en als deze wel licht vangt.
 138:main.c        **** 
 139:main.c        **** Afgedekt: 1
 140:main.c        **** Onafgedekt: 0
 141:main.c        **** 
 142:main.c        **** Alternatief: geef de min en max die je uit de regelbare weerstand leest.
 143:main.c        **** 
 144:main.c        **** 5c:
ARM GAS  C:\Users\bernw\AppData\Local\Temp\ccC7t2Sg.s 			page 4


 145:main.c        **** Pas nu de code aan zodat de achterlichten automtisch aangaan als het donker(der) wordt
 146:main.c        **** en weer uitgaan als het weer licht(er) wordt. Welke grenswaarde heb je hiervoor gebruikt
 147:main.c        **** en waarom?
 148:main.c        **** 
 149:main.c        **** Grenswaarde:
 150:main.c        **** 
 151:main.c        **** Toelichting:
 152:main.c        **** 
 153:main.c        **** 5d:
 154:main.c        **** Niet iedere auto is voorzien van een lichtsensor om automatisch te bepalen of de achterlichten aan
 155:main.c        **** of uit moeten. We willen de code daarom aanpassen zodat we eenvoudig deze functionaliteit wel
 156:main.c        **** of niet meenemen in ons programma. Pas de code zo aan dat we door middel van macros voor
 157:main.c        **** voorwaardelijke compilatie de code wel of niet meenemen in ons programma.
 158:main.c        **** 
 159:main.c        **** Opgave 6: Theorie vragen
 160:main.c        **** ========================
 161:main.c        **** 6a Leg uit wat de volatile modifier doet en wanneer je deze gebruikt.
 162:main.c        **** antwoord: De compiler die haalt elke variabele die niet van waarde verandert weg. Met volatile modi
 163:main.c        **** je aan dat de compiler de variabele niet moet verwijderen bij optimalisatie omdat de waarde nog kan
 164:main.c        **** 
 165:main.c        **** 6b Leg uit wat de const modifier doet en wanneer je deze gebruikt.
 166:main.c        **** antwoord: Met de const modifier geef je aan dat de compiler de variabele die niet van waarde verand
 167:main.c        **** optimaliseren.
 168:main.c        **** 
 169:main.c        **** 6c Gebruikt de Arm processor de stack of registers voor lokale variabelen?
 170:main.c        **** antwoord: de stack
 171:main.c        **** 
 172:main.c        **** 6d Wat is een dangling pointer?
 173:main.c        **** antwoord: een pointer die niet geinitialiseerd is.
 174:main.c        **** 
 175:main.c        **** 6e Wordt een C enumerate type opgeslagen als tekst, integer of floating point?
 176:main.c        **** antwoord: Als tekst.
 177:main.c        **** 
 178:main.c        **** * ========================================
 179:main.c        **** */
 180:main.c        **** #include "project.h"
 181:main.c        **** 
 182:main.c        **** #ifdef LIGHT_SENSOR_PRESENT
 183:main.c        ****     int DaylightIsOn(void);
 184:main.c        ****     #endif
 185:main.c        **** 
 186:main.c        **** #define LIGHT_SENSOR_PRESENT        /* Voor opgave 5d */
 187:main.c        **** #define DAYLIGHT_THRESHOLD 0x01   /* Voor opgave 5c */
 188:main.c        **** 
 189:main.c        **** #define BUTTON_RELEASED 0
 190:main.c        **** #define BUTTON_PRESSED  1
 191:main.c        **** 
 192:main.c        **** #define BRAKE_OFF 0
 193:main.c        **** #define BRAKE_BLINK 1
 194:main.c        **** #define BRAKE_ON 2
 195:main.c        **** 
 196:main.c        **** #define REAR_OFF 0
 197:main.c        **** #define REAR_ON 1
 198:main.c        **** 
 199:main.c        **** #define BLINK_FREQUENCY 5        /* Voor opgave 3a */
 200:main.c        **** 
 201:main.c        **** int button_mode = BUTTON_RELEASED;
ARM GAS  C:\Users\bernw\AppData\Local\Temp\ccC7t2Sg.s 			page 5


 202:main.c        **** int brake_mode = BRAKE_OFF;
 203:main.c        **** int rear_mode = REAR_OFF;
 204:main.c        **** 
 205:main.c        **** int ButtonIsPressed(void)
 206:main.c        **** {
  28              		.loc 1 206 0
  29              		.cfi_startproc
  30              		@ args = 0, pretend = 0, frame = 0
  31              		@ frame_needed = 0, uses_anonymous_args = 0
  32 0000 08B5     		push	{r3, lr}
  33              		.cfi_def_cfa_offset 8
  34              		.cfi_offset 3, -8
  35              		.cfi_offset 14, -4
 207:main.c        ****     /* bepaal of de knop is ingedrukt of niet en retourneer dat */
 208:main.c        ****     /* TODO opgave 2    
 209:main.c        ****     return XXXX */
 210:main.c        ****     if(rempedaal_Read()==1){
  36              		.loc 1 210 0
  37 0002 FFF7FEFF 		bl	rempedaal_Read
  38              	.LVL0:
  39 0006 0128     		cmp	r0, #1
  40 0008 03D0     		beq	.L3
 211:main.c        ****      return 0;
 212:main.c        ****     }else if(rempedaal_Read()==0){
  41              		.loc 1 212 0
  42 000a FFF7FEFF 		bl	rempedaal_Read
  43              	.LVL1:
 213:main.c        ****      return 1;
  44              		.loc 1 213 0
  45 000e 0120     		movs	r0, #1
  46 0010 08BD     		pop	{r3, pc}
  47              	.L3:
 211:main.c        ****      return 0;
  48              		.loc 1 211 0
  49 0012 0020     		movs	r0, #0
 214:main.c        ****     }
 215:main.c        ****     
 216:main.c        ****     return 1; /* tijdelijke returnwaarde */
 217:main.c        **** }
  50              		.loc 1 217 0
  51 0014 08BD     		pop	{r3, pc}
  52              		.cfi_endproc
  53              	.LFE63:
  54              		.size	ButtonIsPressed, .-ButtonIsPressed
  55 0016 00BF     		.section	.text.SetButtonMode,"ax",%progbits
  56              		.align	2
  57              		.global	SetButtonMode
  58              		.thumb
  59              		.thumb_func
  60              		.type	SetButtonMode, %function
  61              	SetButtonMode:
  62              	.LFB64:
 218:main.c        **** 
 219:main.c        **** void SetButtonMode(int mode)
 220:main.c        **** {
  63              		.loc 1 220 0
  64              		.cfi_startproc
ARM GAS  C:\Users\bernw\AppData\Local\Temp\ccC7t2Sg.s 			page 6


  65              		@ args = 0, pretend = 0, frame = 0
  66              		@ frame_needed = 0, uses_anonymous_args = 0
  67              		@ link register save eliminated.
  68              	.LVL2:
 221:main.c        **** 	button_mode = mode;
  69              		.loc 1 221 0
  70 0000 014B     		ldr	r3, .L6
  71 0002 1860     		str	r0, [r3]
  72 0004 7047     		bx	lr
  73              	.L7:
  74 0006 00BF     		.align	2
  75              	.L6:
  76 0008 00000000 		.word	.LANCHOR0
  77              		.cfi_endproc
  78              	.LFE64:
  79              		.size	SetButtonMode, .-SetButtonMode
  80              		.section	.text.GetButtonMode,"ax",%progbits
  81              		.align	2
  82              		.global	GetButtonMode
  83              		.thumb
  84              		.thumb_func
  85              		.type	GetButtonMode, %function
  86              	GetButtonMode:
  87              	.LFB65:
 222:main.c        **** }
 223:main.c        **** 
 224:main.c        **** int GetButtonMode(void)
 225:main.c        **** {
  88              		.loc 1 225 0
  89              		.cfi_startproc
  90              		@ args = 0, pretend = 0, frame = 0
  91              		@ frame_needed = 0, uses_anonymous_args = 0
  92              		@ link register save eliminated.
 226:main.c        **** 	return button_mode;
 227:main.c        **** }
  93              		.loc 1 227 0
  94 0000 014B     		ldr	r3, .L9
  95 0002 1868     		ldr	r0, [r3]
  96 0004 7047     		bx	lr
  97              	.L10:
  98 0006 00BF     		.align	2
  99              	.L9:
 100 0008 00000000 		.word	.LANCHOR0
 101              		.cfi_endproc
 102              	.LFE65:
 103              		.size	GetButtonMode, .-GetButtonMode
 104              		.section	.text.SetBrakeMode,"ax",%progbits
 105              		.align	2
 106              		.global	SetBrakeMode
 107              		.thumb
 108              		.thumb_func
 109              		.type	SetBrakeMode, %function
 110              	SetBrakeMode:
 111              	.LFB66:
 228:main.c        **** 
 229:main.c        **** void SetBrakeMode(int mode)
 230:main.c        **** {
ARM GAS  C:\Users\bernw\AppData\Local\Temp\ccC7t2Sg.s 			page 7


 112              		.loc 1 230 0
 113              		.cfi_startproc
 114              		@ args = 0, pretend = 0, frame = 0
 115              		@ frame_needed = 0, uses_anonymous_args = 0
 116              		@ link register save eliminated.
 117              	.LVL3:
 231:main.c        **** 	brake_mode = mode;
 118              		.loc 1 231 0
 119 0000 014B     		ldr	r3, .L12
 120 0002 5860     		str	r0, [r3, #4]
 121 0004 7047     		bx	lr
 122              	.L13:
 123 0006 00BF     		.align	2
 124              	.L12:
 125 0008 00000000 		.word	.LANCHOR0
 126              		.cfi_endproc
 127              	.LFE66:
 128              		.size	SetBrakeMode, .-SetBrakeMode
 129              		.section	.text.GetBrakeMode,"ax",%progbits
 130              		.align	2
 131              		.global	GetBrakeMode
 132              		.thumb
 133              		.thumb_func
 134              		.type	GetBrakeMode, %function
 135              	GetBrakeMode:
 136              	.LFB67:
 232:main.c        **** }
 233:main.c        **** 
 234:main.c        **** int GetBrakeMode(void)
 235:main.c        **** {
 137              		.loc 1 235 0
 138              		.cfi_startproc
 139              		@ args = 0, pretend = 0, frame = 0
 140              		@ frame_needed = 0, uses_anonymous_args = 0
 141              		@ link register save eliminated.
 236:main.c        **** 	return brake_mode;
 237:main.c        **** }
 142              		.loc 1 237 0
 143 0000 014B     		ldr	r3, .L15
 144 0002 5868     		ldr	r0, [r3, #4]
 145 0004 7047     		bx	lr
 146              	.L16:
 147 0006 00BF     		.align	2
 148              	.L15:
 149 0008 00000000 		.word	.LANCHOR0
 150              		.cfi_endproc
 151              	.LFE67:
 152              		.size	GetBrakeMode, .-GetBrakeMode
 153              		.section	.text.SwitchBrakeLights,"ax",%progbits
 154              		.align	2
 155              		.global	SwitchBrakeLights
 156              		.thumb
 157              		.thumb_func
 158              		.type	SwitchBrakeLights, %function
 159              	SwitchBrakeLights:
 160              	.LFB68:
 238:main.c        **** 
ARM GAS  C:\Users\bernw\AppData\Local\Temp\ccC7t2Sg.s 			page 8


 239:main.c        **** void SwitchBrakeLights(int mode)
 240:main.c        **** {
 161              		.loc 1 240 0
 162              		.cfi_startproc
 163              		@ args = 0, pretend = 0, frame = 0
 164              		@ frame_needed = 0, uses_anonymous_args = 0
 165              	.LVL4:
 166 0000 08B5     		push	{r3, lr}
 167              		.cfi_def_cfa_offset 8
 168              		.cfi_offset 3, -8
 169              		.cfi_offset 14, -4
 241:main.c        ****     /* Zet de remlichten aan of uit afhankelijk van de mode */
 242:main.c        ****     
 243:main.c        ****     /* TODO Opgave 2 */
 244:main.c        ****     if(mode == BRAKE_ON){
 170              		.loc 1 244 0
 171 0002 0228     		cmp	r0, #2
 172 0004 03D1     		bne	.L18
 245:main.c        ****      remlicht_Write(1);
 173              		.loc 1 245 0
 174 0006 0120     		movs	r0, #1
 175              	.LVL5:
 176 0008 FFF7FEFF 		bl	remlicht_Write
 177              	.LVL6:
 178 000c 08BD     		pop	{r3, pc}
 179              	.LVL7:
 180              	.L18:
 246:main.c        ****     }else if(mode == BRAKE_OFF){
 181              		.loc 1 246 0
 182 000e 08B9     		cbnz	r0, .L17
 247:main.c        ****      remlicht_Write(0);
 183              		.loc 1 247 0
 184 0010 FFF7FEFF 		bl	remlicht_Write
 185              	.LVL8:
 186              	.L17:
 187 0014 08BD     		pop	{r3, pc}
 188              		.cfi_endproc
 189              	.LFE68:
 190              		.size	SwitchBrakeLights, .-SwitchBrakeLights
 191 0016 00BF     		.section	.text.FlashBrakeLights,"ax",%progbits
 192              		.align	2
 193              		.global	FlashBrakeLights
 194              		.thumb
 195              		.thumb_func
 196              		.type	FlashBrakeLights, %function
 197              	FlashBrakeLights:
 198              	.LFB69:
 248:main.c        ****     }
 249:main.c        **** }
 250:main.c        **** 
 251:main.c        **** void FlashBrakeLights(int duration)
 252:main.c        **** {
 199              		.loc 1 252 0
 200              		.cfi_startproc
 201              		@ args = 0, pretend = 0, frame = 0
 202              		@ frame_needed = 0, uses_anonymous_args = 0
 203              	.LVL9:
ARM GAS  C:\Users\bernw\AppData\Local\Temp\ccC7t2Sg.s 			page 9


 204 0000 38B5     		push	{r3, r4, r5, lr}
 205              		.cfi_def_cfa_offset 16
 206              		.cfi_offset 3, -16
 207              		.cfi_offset 4, -12
 208              		.cfi_offset 5, -8
 209              		.cfi_offset 14, -4
 210 0002 0546     		mov	r5, r0
 211              	.LVL10:
 212              	.LBB2:
 253:main.c        ****     /* Knipper de remlichten aan/uit voor duration ms op BLINK_FREQUENCY frequentie */
 254:main.c        ****     
 255:main.c        ****     // TODO opgave 3
 256:main.c        **** 	for (int i=0; i<BLINK_FREQUENCY; i++)
 213              		.loc 1 256 0
 214 0004 0024     		movs	r4, #0
 215 0006 0CE0     		b	.L22
 216              	.LVL11:
 217              	.L23:
 257:main.c        **** 	{
 258:main.c        ****         remlicht_Write(1);
 218              		.loc 1 258 0 discriminator 3
 219 0008 0120     		movs	r0, #1
 220 000a FFF7FEFF 		bl	remlicht_Write
 221              	.LVL12:
 259:main.c        ****         CyDelay(duration);
 222              		.loc 1 259 0 discriminator 3
 223 000e 2846     		mov	r0, r5
 224 0010 FFF7FEFF 		bl	CyDelay
 225              	.LVL13:
 260:main.c        ****         remlicht_Write(0);
 226              		.loc 1 260 0 discriminator 3
 227 0014 0020     		movs	r0, #0
 228 0016 FFF7FEFF 		bl	remlicht_Write
 229              	.LVL14:
 261:main.c        ****         CyDelay(duration);
 230              		.loc 1 261 0 discriminator 3
 231 001a 2846     		mov	r0, r5
 232 001c FFF7FEFF 		bl	CyDelay
 233              	.LVL15:
 256:main.c        **** 	{
 234              		.loc 1 256 0 discriminator 3
 235 0020 0134     		adds	r4, r4, #1
 236              	.LVL16:
 237              	.L22:
 256:main.c        **** 	{
 238              		.loc 1 256 0 is_stmt 0 discriminator 1
 239 0022 042C     		cmp	r4, #4
 240 0024 F0DD     		ble	.L23
 241              	.LBE2:
 262:main.c        **** 	}
 263:main.c        ****     
 264:main.c        **** }
 242              		.loc 1 264 0 is_stmt 1
 243 0026 38BD     		pop	{r3, r4, r5, pc}
 244              		.cfi_endproc
 245              	.LFE69:
 246              		.size	FlashBrakeLights, .-FlashBrakeLights
ARM GAS  C:\Users\bernw\AppData\Local\Temp\ccC7t2Sg.s 			page 10


 247              		.section	.text.SetRearMode,"ax",%progbits
 248              		.align	2
 249              		.global	SetRearMode
 250              		.thumb
 251              		.thumb_func
 252              		.type	SetRearMode, %function
 253              	SetRearMode:
 254              	.LFB70:
 265:main.c        **** 
 266:main.c        **** void SetRearMode(int mode)
 267:main.c        **** {
 255              		.loc 1 267 0
 256              		.cfi_startproc
 257              		@ args = 0, pretend = 0, frame = 0
 258              		@ frame_needed = 0, uses_anonymous_args = 0
 259              		@ link register save eliminated.
 260              	.LVL17:
 268:main.c        **** 	rear_mode = mode;
 261              		.loc 1 268 0
 262 0000 014B     		ldr	r3, .L26
 263 0002 9860     		str	r0, [r3, #8]
 264 0004 7047     		bx	lr
 265              	.L27:
 266 0006 00BF     		.align	2
 267              	.L26:
 268 0008 00000000 		.word	.LANCHOR0
 269              		.cfi_endproc
 270              	.LFE70:
 271              		.size	SetRearMode, .-SetRearMode
 272              		.section	.text.GetRearMode,"ax",%progbits
 273              		.align	2
 274              		.global	GetRearMode
 275              		.thumb
 276              		.thumb_func
 277              		.type	GetRearMode, %function
 278              	GetRearMode:
 279              	.LFB71:
 269:main.c        **** }
 270:main.c        **** 
 271:main.c        **** int GetRearMode(void)
 272:main.c        **** {
 280              		.loc 1 272 0
 281              		.cfi_startproc
 282              		@ args = 0, pretend = 0, frame = 0
 283              		@ frame_needed = 0, uses_anonymous_args = 0
 284              		@ link register save eliminated.
 273:main.c        **** 	return rear_mode;
 274:main.c        **** }
 285              		.loc 1 274 0
 286 0000 014B     		ldr	r3, .L29
 287 0002 9868     		ldr	r0, [r3, #8]
 288 0004 7047     		bx	lr
 289              	.L30:
 290 0006 00BF     		.align	2
 291              	.L29:
 292 0008 00000000 		.word	.LANCHOR0
 293              		.cfi_endproc
ARM GAS  C:\Users\bernw\AppData\Local\Temp\ccC7t2Sg.s 			page 11


 294              	.LFE71:
 295              		.size	GetRearMode, .-GetRearMode
 296              		.section	.text.DaylightIsOn,"ax",%progbits
 297              		.align	2
 298              		.global	DaylightIsOn
 299              		.thumb
 300              		.thumb_func
 301              		.type	DaylightIsOn, %function
 302              	DaylightIsOn:
 303              	.LFB72:
 275:main.c        **** 
 276:main.c        **** volatile int value;
 277:main.c        **** 
 278:main.c        **** int DaylightIsOn(void)
 279:main.c        **** {
 304              		.loc 1 279 0
 305              		.cfi_startproc
 306              		@ args = 0, pretend = 0, frame = 0
 307              		@ frame_needed = 0, uses_anonymous_args = 0
 308 0000 08B5     		push	{r3, lr}
 309              		.cfi_def_cfa_offset 8
 310              		.cfi_offset 3, -8
 311              		.cfi_offset 14, -4
 280:main.c        ****     /* bepaal of het licht of donker is en retourneer dat */
 281:main.c        ****     value = ADC_SAR_1_GetResult8();
 312              		.loc 1 281 0
 313 0002 FFF7FEFF 		bl	ADC_SAR_1_GetResult8
 314              	.LVL18:
 315 0006 054B     		ldr	r3, .L35
 316 0008 1860     		str	r0, [r3]
 282:main.c        ****     // TODO Opgave 5 uitlezen licht sensor
 283:main.c        ****     if(value < DAYLIGHT_THRESHOLD){
 317              		.loc 1 283 0
 318 000a 1B68     		ldr	r3, [r3]
 319 000c 002B     		cmp	r3, #0
 320 000e 03DD     		ble	.L33
 284:main.c        ****     return 0;
 285:main.c        ****     }else if(value > DAYLIGHT_THRESHOLD){
 321              		.loc 1 285 0
 322 0010 024B     		ldr	r3, .L35
 323 0012 1B68     		ldr	r3, [r3]
 286:main.c        ****     return 1;
 324              		.loc 1 286 0
 325 0014 0120     		movs	r0, #1
 326 0016 08BD     		pop	{r3, pc}
 327              	.L33:
 284:main.c        ****     return 0;
 328              		.loc 1 284 0
 329 0018 0020     		movs	r0, #0
 287:main.c        ****     }
 288:main.c        **** 	//return (value > DAYLIGHT_THRESHOLD); 
 289:main.c        ****     
 290:main.c        ****     return 1; /* tijdelijke returnwaarde */
 291:main.c        **** }
 330              		.loc 1 291 0
 331 001a 08BD     		pop	{r3, pc}
 332              	.L36:
ARM GAS  C:\Users\bernw\AppData\Local\Temp\ccC7t2Sg.s 			page 12


 333              		.align	2
 334              	.L35:
 335 001c 00000000 		.word	value
 336              		.cfi_endproc
 337              	.LFE72:
 338              		.size	DaylightIsOn, .-DaylightIsOn
 339              		.section	.text.SwitchRearLights,"ax",%progbits
 340              		.align	2
 341              		.global	SwitchRearLights
 342              		.thumb
 343              		.thumb_func
 344              		.type	SwitchRearLights, %function
 345              	SwitchRearLights:
 346              	.LFB73:
 292:main.c        **** 
 293:main.c        **** void SwitchRearLights(int mode)
 294:main.c        **** {
 347              		.loc 1 294 0
 348              		.cfi_startproc
 349              		@ args = 0, pretend = 0, frame = 0
 350              		@ frame_needed = 0, uses_anonymous_args = 0
 351              	.LVL19:
 352 0000 08B5     		push	{r3, lr}
 353              		.cfi_def_cfa_offset 8
 354              		.cfi_offset 3, -8
 355              		.cfi_offset 14, -4
 295:main.c        ****     /* set de achterlichten (half) aan of uit afhankelijk van mode */
 296:main.c        ****     
 297:main.c        ****     /* TODO opgave 4 */
 298:main.c        ****     if(mode == REAR_ON){
 356              		.loc 1 298 0
 357 0002 0128     		cmp	r0, #1
 358 0004 05D1     		bne	.L38
 299:main.c        ****     achterlicht_Write(1);
 359              		.loc 1 299 0
 360 0006 FFF7FEFF 		bl	achterlicht_Write
 361              	.LVL20:
 300:main.c        ****     PWM_achterlicht_WriteCompare(50);
 362              		.loc 1 300 0
 363 000a 3220     		movs	r0, #50
 364 000c FFF7FEFF 		bl	PWM_achterlicht_WriteCompare
 365              	.LVL21:
 366 0010 08BD     		pop	{r3, pc}
 367              	.LVL22:
 368              	.L38:
 301:main.c        ****     }else if(mode == REAR_OFF){
 369              		.loc 1 301 0
 370 0012 20B9     		cbnz	r0, .L37
 302:main.c        ****     achterlicht_Write(0);
 371              		.loc 1 302 0
 372 0014 FFF7FEFF 		bl	achterlicht_Write
 373              	.LVL23:
 303:main.c        ****     PWM_achterlicht_WriteCompare(0);
 374              		.loc 1 303 0
 375 0018 0020     		movs	r0, #0
 376 001a FFF7FEFF 		bl	PWM_achterlicht_WriteCompare
 377              	.LVL24:
ARM GAS  C:\Users\bernw\AppData\Local\Temp\ccC7t2Sg.s 			page 13


 378              	.L37:
 379 001e 08BD     		pop	{r3, pc}
 380              		.cfi_endproc
 381              	.LFE73:
 382              		.size	SwitchRearLights, .-SwitchRearLights
 383              		.section	.text.main,"ax",%progbits
 384              		.align	2
 385              		.global	main
 386              		.thumb
 387              		.thumb_func
 388              		.type	main, %function
 389              	main:
 390              	.LFB74:
 304:main.c        ****     }
 305:main.c        **** }
 306:main.c        **** 
 307:main.c        **** int main(void)
 308:main.c        **** {
 391              		.loc 1 308 0
 392              		.cfi_startproc
 393              		@ Volatile: function does not return.
 394              		@ args = 0, pretend = 0, frame = 0
 395              		@ frame_needed = 0, uses_anonymous_args = 0
 396 0000 08B5     		push	{r3, lr}
 397              		.cfi_def_cfa_offset 8
 398              		.cfi_offset 3, -8
 399              		.cfi_offset 14, -4
 309:main.c        **** 	CyGlobalIntEnable; /* Enable global interrupts. */
 400              		.loc 1 309 0
 401              		.syntax unified
 402              	@ 309 "main.c" 1
 403 0002 62B6     		CPSIE   i
 404              	@ 0 "" 2
 310:main.c        **** 
 311:main.c        **** 	/* Plaats hier je initialisatiecode (e.g. MyInst_Start()) */
 312:main.c        ****     PWM_achterlicht_Start();
 405              		.loc 1 312 0
 406              		.thumb
 407              		.syntax unified
 408 0004 FFF7FEFF 		bl	PWM_achterlicht_Start
 409              	.LVL25:
 313:main.c        ****     Clock_achterlicht_Start();
 410              		.loc 1 313 0
 411 0008 FFF7FEFF 		bl	Clock_achterlicht_Start
 412              	.LVL26:
 314:main.c        ****     ADC_SAR_1_Start();
 413              		.loc 1 314 0
 414 000c FFF7FEFF 		bl	ADC_SAR_1_Start
 415              	.LVL27:
 416              	.L42:
 315:main.c        **** 	for(;;)
 316:main.c        **** 	{
 317:main.c        **** 	/* Plaats hier je main code */
 318:main.c        ****        SetRearMode(REAR_ON); 
 417              		.loc 1 318 0
 418 0010 0120     		movs	r0, #1
 419 0012 FFF7FEFF 		bl	SetRearMode
ARM GAS  C:\Users\bernw\AppData\Local\Temp\ccC7t2Sg.s 			page 14


 420              	.LVL28:
 319:main.c        ****        SwitchRearLights(REAR_ON);
 421              		.loc 1 319 0
 422 0016 0120     		movs	r0, #1
 423 0018 FFF7FEFF 		bl	SwitchRearLights
 424              	.LVL29:
 320:main.c        ****         if (ButtonIsPressed()) /* Check of de User Button is ingedrukt */
 425              		.loc 1 320 0
 426 001c FFF7FEFF 		bl	ButtonIsPressed
 427              	.LVL30:
 428 0020 78B1     		cbz	r0, .L43
 321:main.c        ****         {
 322:main.c        ****             if (GetButtonMode() == BUTTON_RELEASED) /* button was net nog niet ingedrukt */
 429              		.loc 1 322 0
 430 0022 FFF7FEFF 		bl	GetButtonMode
 431              	.LVL31:
 432 0026 C8B9     		cbnz	r0, .L44
 323:main.c        ****             {
 324:main.c        ****                 SetButtonMode(BUTTON_PRESSED);
 433              		.loc 1 324 0
 434 0028 0120     		movs	r0, #1
 435 002a FFF7FEFF 		bl	SetButtonMode
 436              	.LVL32:
 325:main.c        **** 				SetBrakeMode(BRAKE_ON);
 437              		.loc 1 325 0
 438 002e 0220     		movs	r0, #2
 439 0030 FFF7FEFF 		bl	SetBrakeMode
 440              	.LVL33:
 326:main.c        ****                 //SetRearMode(REAR_ON);
 327:main.c        **** 				FlashBrakeLights(100); //Voor opgave 3: 
 441              		.loc 1 327 0
 442 0034 6420     		movs	r0, #100
 443 0036 FFF7FEFF 		bl	FlashBrakeLights
 444              	.LVL34:
 328:main.c        **** 				SwitchBrakeLights(BRAKE_ON);
 445              		.loc 1 328 0
 446 003a 0220     		movs	r0, #2
 447 003c FFF7FEFF 		bl	SwitchBrakeLights
 448              	.LVL35:
 449 0040 0CE0     		b	.L44
 450              	.L43:
 329:main.c        ****                // SwitchRearLights(REAR_ON);
 330:main.c        ****             }
 331:main.c        ****         }
 332:main.c        ****         else
 333:main.c        ****         {
 334:main.c        ****             if (GetButtonMode() == BUTTON_PRESSED) /* button was net nog ingedrukt */
 451              		.loc 1 334 0
 452 0042 FFF7FEFF 		bl	GetButtonMode
 453              	.LVL36:
 454 0046 0128     		cmp	r0, #1
 455 0048 08D1     		bne	.L44
 335:main.c        ****             {
 336:main.c        ****                 SetButtonMode(BUTTON_RELEASED);
 456              		.loc 1 336 0
 457 004a 0020     		movs	r0, #0
 458 004c FFF7FEFF 		bl	SetButtonMode
ARM GAS  C:\Users\bernw\AppData\Local\Temp\ccC7t2Sg.s 			page 15


 459              	.LVL37:
 337:main.c        **** 				SetBrakeMode(BRAKE_OFF);
 460              		.loc 1 337 0
 461 0050 0020     		movs	r0, #0
 462 0052 FFF7FEFF 		bl	SetBrakeMode
 463              	.LVL38:
 338:main.c        ****                 //SetRearMode(REAR_OFF);
 339:main.c        ****                 SwitchBrakeLights(BRAKE_OFF);
 464              		.loc 1 339 0
 465 0056 0020     		movs	r0, #0
 466 0058 FFF7FEFF 		bl	SwitchBrakeLights
 467              	.LVL39:
 468              	.L44:
 340:main.c        ****                // SwitchRearLights(REAR_OFF);
 341:main.c        ****             }
 342:main.c        ****         }
 343:main.c        **** 		if ((!DaylightIsOn()) && GetRearMode() == REAR_OFF)
 469              		.loc 1 343 0
 470 005c FFF7FEFF 		bl	DaylightIsOn
 471              	.LVL40:
 472 0060 48B9     		cbnz	r0, .L45
 473              		.loc 1 343 0 is_stmt 0 discriminator 1
 474 0062 FFF7FEFF 		bl	GetRearMode
 475              	.LVL41:
 476 0066 30B9     		cbnz	r0, .L45
 344:main.c        **** 		{
 345:main.c        **** 			SwitchRearLights(REAR_ON);
 477              		.loc 1 345 0 is_stmt 1
 478 0068 0120     		movs	r0, #1
 479 006a FFF7FEFF 		bl	SwitchRearLights
 480              	.LVL42:
 346:main.c        **** 			SetRearMode(REAR_ON);
 481              		.loc 1 346 0
 482 006e 0120     		movs	r0, #1
 483 0070 FFF7FEFF 		bl	SetRearMode
 484              	.LVL43:
 485 0074 CCE7     		b	.L42
 486              	.L45:
 347:main.c        **** 		}
 348:main.c        **** 		else if (DaylightIsOn() && GetRearMode() == REAR_ON)
 487              		.loc 1 348 0
 488 0076 FFF7FEFF 		bl	DaylightIsOn
 489              	.LVL44:
 490 007a 0028     		cmp	r0, #0
 491 007c C8D0     		beq	.L42
 492              		.loc 1 348 0 is_stmt 0 discriminator 1
 493 007e FFF7FEFF 		bl	GetRearMode
 494              	.LVL45:
 495 0082 0128     		cmp	r0, #1
 496 0084 C4D1     		bne	.L42
 349:main.c        **** 		{
 350:main.c        **** 			SwitchRearLights(REAR_OFF);
 497              		.loc 1 350 0 is_stmt 1
 498 0086 0020     		movs	r0, #0
 499 0088 FFF7FEFF 		bl	SwitchRearLights
 500              	.LVL46:
 351:main.c        **** 			SetRearMode(REAR_OFF);
ARM GAS  C:\Users\bernw\AppData\Local\Temp\ccC7t2Sg.s 			page 16


 501              		.loc 1 351 0
 502 008c 0020     		movs	r0, #0
 503 008e FFF7FEFF 		bl	SetRearMode
 504              	.LVL47:
 505 0092 BDE7     		b	.L42
 506              		.cfi_endproc
 507              	.LFE74:
 508              		.size	main, .-main
 509              		.comm	value,4,4
 510              		.global	rear_mode
 511              		.global	brake_mode
 512              		.global	button_mode
 513              		.bss
 514              		.align	2
 515              		.set	.LANCHOR0,. + 0
 516              		.type	button_mode, %object
 517              		.size	button_mode, 4
 518              	button_mode:
 519 0000 00000000 		.space	4
 520              		.type	brake_mode, %object
 521              		.size	brake_mode, 4
 522              	brake_mode:
 523 0004 00000000 		.space	4
 524              		.type	rear_mode, %object
 525              		.size	rear_mode, 4
 526              	rear_mode:
 527 0008 00000000 		.space	4
 528              		.text
 529              	.Letext0:
 530              		.file 2 "c:\\program files (x86)\\cypress\\psoc creator\\4.2\\psoc creator\\import\\gnu\\arm\\5.4.
 531              		.file 3 "c:\\program files (x86)\\cypress\\psoc creator\\4.2\\psoc creator\\import\\gnu\\arm\\5.4.
 532              		.file 4 "Generated_Source\\PSoC5/core_cm3.h"
 533              		.file 5 "Generated_Source\\PSoC5/rempedaal.h"
 534              		.file 6 "Generated_Source\\PSoC5/remlicht.h"
 535              		.file 7 "Generated_Source\\PSoC5/CyLib.h"
 536              		.file 8 "Generated_Source\\PSoC5/ADC_SAR_1.h"
 537              		.file 9 "Generated_Source\\PSoC5/achterlicht.h"
 538              		.file 10 "Generated_Source\\PSoC5/PWM_achterlicht.h"
 539              		.file 11 "Generated_Source\\PSoC5/Clock_achterlicht.h"