ARM GAS  C:\Users\bernw\AppData\Local\Temp\cc42BCXf.s 			page 1


   1              		.syntax unified
   2              		.cpu cortex-m3
   3              		.fpu softvfp
   4              		.eabi_attribute 20, 1
   5              		.eabi_attribute 21, 1
   6              		.eabi_attribute 23, 3
   7              		.eabi_attribute 24, 1
   8              		.eabi_attribute 25, 1
   9              		.eabi_attribute 26, 1
  10              		.eabi_attribute 30, 1
  11              		.eabi_attribute 34, 1
  12              		.eabi_attribute 18, 4
  13              		.thumb
  14              		.syntax unified
  15              		.file	"main.c"
  16              		.text
  17              	.Ltext0:
  18              		.cfi_sections	.debug_frame
  19              		.section	.text.readResistorValue,"ax",%progbits
  20              		.align	2
  21              		.global	readResistorValue
  22              		.thumb
  23              		.thumb_func
  24              		.type	readResistorValue, %function
  25              	readResistorValue:
  26              	.LFB63:
  27              		.file 1 "main.c"
   1:main.c        **** /**
   2:main.c        ****  ***********************************************************************************
   3:main.c        ****  * 
   4:main.c        ****  * 
   5:main.c        ****  * Exam of Embedded Systems 2
   6:main.c        ****  * Date: November 4th 2019
   7:main.c        ****  * Time: 14:00 - 16:30
   8:main.c        ****  *
   9:main.c        ****  * TO_DO: Exercise 1
  10:main.c        ****  * Student's name:
  11:main.c        ****  * Student's number: 
  12:main.c        ****  *
  13:main.c        ****  *
  14:main.c        ****  * Preface:
  15:main.c        ****  *
  16:main.c        ****  * In this exam you will simulate the charging/discharging process for the
  17:main.c        ****  * battery of an electric car. Your system will consider the following hardware
  18:main.c        ****  * components:
  19:main.c        ****  *
  20:main.c        ****  *   Battery level LEDS: An array of three LEDs which indicates the level of
  21:main.c        ****  *                       charge of the battery.
  22:main.c        ****  *   Charger status LED: A single LED which indicates the state of the charger.
  23:main.c        ****  *   Potentiometer:      A three-terminal variable resistor which simulates the 
  24:main.c        ****  *                       level of charge of the battery.
  25:main.c        ****  * 
  26:main.c        ****  * The system monitors the voltage level of the battery and adjusts its 
  27:main.c        ****  * charging state accordingly: a fast-charge state for a low charged battery
  28:main.c        ****  * (below 12.0 volts), a slow-charge state for a medium charged battery
  29:main.c        ****  * (between 12.0 and 13.2 volts) and a no-charge state for a fully charged
  30:main.c        ****  * battery (13.2 volts or higher).
ARM GAS  C:\Users\bernw\AppData\Local\Temp\cc42BCXf.s 			page 2


  31:main.c        ****  *
  32:main.c        ****  * IMPORTANT: WHEN YOU HAVE FINISHED, DELIVER A ZIP FILE OF YOUR COMPLETE
  33:main.c        ****  *            PROJECT!! PACKAGE THE battery_charging.cysdn DIRECTORY INTO A ZIP
  34:main.c        ****  *            FILE AND PUT IT ON YOUR USB STICK!
  35:main.c        ****  * 
  36:main.c        ****  * Good luck!
  37:main.c        ****  * 
  38:main.c        ****  * 
  39:main.c        ****  ***********************************************************************************
  40:main.c        ****  * 
  41:main.c        ****  * EXERCISES:
  42:main.c        ****  *
  43:main.c        ****  * Exercise 1: Getting started
  44:main.c        ****  *
  45:main.c        ****  * 1a: Enter your name and student number in the lines at the beginning of this
  46:main.c        ****  *     file. 
  47:main.c        ****  * 
  48:main.c        ****  * 1b: Create a new (empty) project for your exam. Make sure to check that you
  49:main.c        ****  *     are using the correct target hardware (your type of board). Call this
  50:main.c        ****  *     project "battery_charging" and look carefully where this is stored. Copy
  51:main.c        ****  *     the content of this file with the exercises and code in the main.c file 
  52:main.c        ****  *     of your project. Build the project and see if you can run and debug it.
  53:main.c        ****  * 
  54:main.c        ****  * 1c: If the battery level has not changed, there is no need to do anything. 
  55:main.c        ****  *     We might as well wait for a while until we check the voltage level
  56:main.c        ****  *     again. Fill in the code in the main loop to let the program sleep for a
  57:main.c        ****  *     while before we check the battery again. How long do you let the program
  58:main.c        ****  *     sleep?
  59:main.c        ****  * 
  60:main.c        ****  * 
  61:main.c        ****  ***********************************************************************************
  62:main.c        ****  *
  63:main.c        ****  * Exercise 2: Battery level indicator
  64:main.c        ****  * 
  65:main.c        ****  * The current level of the battery condition has to be indicated by three
  66:main.c        ****  * LEDs, see the function setBatteryIndicator.
  67:main.c        ****  *
  68:main.c        ****  * 2a: Connect three LEDs to your PSoC board. Make sure the LEDs can be
  69:main.c        ****  *     controlled by three consecutive pins of the same port on you PSoC. Draw
  70:main.c        ****  *     in your top-design how you have connected the three LEDs. 
  71:main.c        ****  *
  72:main.c        ****  * 2b: Fill in the code of the function setBatteryIndicator (the voltage 
  73:main.c        ****  *     reading function will be completed in Exercise 3). Make sure you use
  74:main.c        ****  *     individual Write functions for each pin (each LED).
  75:main.c        ****  * 
  76:main.c        ****  * TO DO!!!2c: Instead of individual Write functions for each pin you can also use one
  77:main.c        ****  *     single Write function to set the value for a set of consecutive pins at
  78:main.c        ****  *     once. Describe what has to be changed in your design to be able to use
  79:main.c        ****  *     such a function. Also provide the Write calls that you would use in this
  80:main.c        ****  *     case to control the LEDs. Put your answer below:
  81:main.c        ****  *
  82:main.c        ****  *       Description:
  83:main.c        ****  *       New Pin Write function calls:
  84:main.c        ****  *
  85:main.c        ****  *
  86:main.c        ****  ***********************************************************************************
  87:main.c        ****  * 
ARM GAS  C:\Users\bernw\AppData\Local\Temp\cc42BCXf.s 			page 3


  88:main.c        ****  * Exercise 3: Battery voltage sensing
  89:main.c        ****  * 
  90:main.c        ****  * The system has to sense the current voltage reading of the battery. We
  91:main.c        ****  * simulate this with the use of a variable resistor (potentiometer) from your
  92:main.c        ****  * kit. 
  93:main.c        ****  *
  94:main.c        ****  * 3a: Connect the variable resistor to you PSoC such that you will be able to
  95:main.c        ****  *     read its setting. Draw in your top-design how you have connected your
  96:main.c        ****  *     resistor.
  97:main.c        ****  *
  98:main.c        ****  * 3b: Complete the code of the function readResistorValue to read the resistor
  99:main.c        ****  *     value. 
 100:main.c        ****  *
 101:main.c        ****  * 3c: What are the maximum and the minimum values that you can read from your
 102:main.c        ****  *     resistor?
 103:main.c        ****  *
 104:main.c        ****  *       Maximum: 255 in decimals
 105:main.c        ****  *       Minimum: 0 in decimals
 106:main.c        ****  *
 107:main.c        ****  * 3d: Complete the code of the function readBatteryVoltage to convert the
 108:main.c        ****  *     resistor value into a voltage value between 0.0 and 14.0 volts
 109:main.c        ****  *
 110:main.c        ****  * 3e: Complete the code of the function readBatteryLevel to convert the
 111:main.c        ****  *     voltage reading into a battery level. Make sure you use macros to define
 112:main.c        ****  *     the different voltage levels.
 113:main.c        ****  *
 114:main.c        ****  *
 115:main.c        ****  ***********************************************************************************
 116:main.c        ****  * 
 117:main.c        ****  * Exercise 4: Charger State Indication
 118:main.c        ****  *
 119:main.c        ****  * The state of the charger has to be indicated with a single LED:
 120:main.c        ****  *   LED constantly on for no charge 
 121:main.c        ****  *   LED blinks slow for regular charging 
 122:main.c        ****  *   LED blinks fast for fast charge 
 123:main.c        ****  *   LED off for unknown state 
 124:main.c        ****  *
 125:main.c        ****  * The blinking rate of the LED should be controlled by a PWM module
 126:main.c        ****  *
 127:main.c        ****  * 4a: Connect another LED to the PSoC to be used for the charger indicator.
 128:main.c        ****  *     Draw the connections in the top-design.
 129:main.c        ****  *
 130:main.c        ****  * 4b: Configure a PWM module in your top-design and connect it to your led.
 131:main.c        ****  *
 132:main.c        ****  * 4c: Complete the code of the function setChargerIndicator such that the 
 133:main.c        ****  *     charger indicator LED performs the correct function. Choose the
 134:main.c        ****  *     frequency of the blinking rates yourself.
 135:main.c        ****  *
 136:main.c        ****  * 4d: Provide and explain the choices you have made for your PWM module:
 137:main.c        ****  *
 138:main.c        ****  *       Input clock frequency:
 139:main.c        ****  *       PWM period:
 140:main.c        ****  *       Fast blinking frequency and corresponding PWM duty cycle setting:
 141:main.c        ****  *       Slow blinking frequency and corresponding PWM duty cycle setting:
 142:main.c        ****  *
 143:main.c        ****  *
 144:main.c        ****  ***********************************************************************************
ARM GAS  C:\Users\bernw\AppData\Local\Temp\cc42BCXf.s 			page 4


 145:main.c        ****  *
 146:main.c        ****  * Exercise 5: Theoretical questions
 147:main.c        ****  * 
 148:main.c        ****  * 5a: How many bytes does the PSoC use to store the following variables:
 149:main.c        ****  *
 150:main.c        ****  *       int:
 151:main.c        ****  *       float:
 152:main.c        ****  *       double:
 153:main.c        ****  *
 154:main.c        ****  * 5b: Does the PSoC use little endian or big endian? 
 155:main.c        ****  *
 156:main.c        ****  * 5c: How many bits does the PSoC use to store a memory pointer?  
 157:main.c        ****  *
 158:main.c        ****  * 5d: Given your answers for 5a and 5c, how many integers could theoretically
 159:main.c        ****  *     be stored and addressed in the PSoC?
 160:main.c        ****  * 
 161:main.c        ****  * 
 162:main.c        ****  * REMINDER: Hand in a zip file ("battery_charging.cydsn.zip") of your complete
 163:main.c        ****  * project!!
 164:main.c        ****  *
 165:main.c        ****  *
 166:main.c        ****  ***********************************************************************************/
 167:main.c        **** 
 168:main.c        **** #include "project.h"
 169:main.c        **** 
 170:main.c        **** typedef enum CHARGE_STATES {
 171:main.c        ****   UNKOWN_CHARGE,
 172:main.c        ****   FAST_CHARGE,
 173:main.c        ****   REGULAR_CHARGE,
 174:main.c        ****   NO_CHARGE
 175:main.c        **** } CHARGE_STATES;
 176:main.c        **** 
 177:main.c        **** typedef enum BATT_LEVELS {
 178:main.c        ****   LEVEL_UNKNOWN,
 179:main.c        ****   LEVEL_FULL,
 180:main.c        ****   LEVEL_MEDIUM,
 181:main.c        ****   LEVEL_LOW
 182:main.c        **** } BATT_LEVELS;
 183:main.c        **** 
 184:main.c        **** int readResistorValue() {
  28              		.loc 1 184 0
  29              		.cfi_startproc
  30              		@ args = 0, pretend = 0, frame = 0
  31              		@ frame_needed = 0, uses_anonymous_args = 0
  32 0000 08B5     		push	{r3, lr}
  33              		.cfi_def_cfa_offset 8
  34              		.cfi_offset 3, -8
  35              		.cfi_offset 14, -4
  36              	.L2:
 185:main.c        **** 
 186:main.c        ****   /* TO_DO: Exercise 3b
 187:main.c        ****    * Fill in the code for this function to read the resistor value
 188:main.c        ****    */
 189:main.c        ****   while(!ADC_SAR_1_IsEndConversion(ADC_SAR_1_RETURN_STATUS)) ; 
  37              		.loc 1 189 0 discriminator 1
  38 0002 0120     		movs	r0, #1
  39 0004 FFF7FEFF 		bl	ADC_SAR_1_IsEndConversion
ARM GAS  C:\Users\bernw\AppData\Local\Temp\cc42BCXf.s 			page 5


  40              	.LVL0:
  41 0008 0028     		cmp	r0, #0
  42 000a FAD0     		beq	.L2
 190:main.c        ****   
 191:main.c        ****   int resistorValue = ADC_SAR_1_GetResult16();
  43              		.loc 1 191 0
  44 000c FFF7FEFF 		bl	ADC_SAR_1_GetResult16
  45              	.LVL1:
 192:main.c        **** 
 193:main.c        ****   return resistorValue;
 194:main.c        **** 
 195:main.c        **** }
  46              		.loc 1 195 0
  47 0010 08BD     		pop	{r3, pc}
  48              		.cfi_endproc
  49              	.LFE63:
  50              		.size	readResistorValue, .-readResistorValue
  51              		.global	__aeabi_i2d
  52              		.global	__aeabi_dmul
  53              		.global	__aeabi_d2f
  54 0012 00BF     		.section	.text.readBatteryVoltage,"ax",%progbits
  55              		.align	2
  56              		.global	readBatteryVoltage
  57              		.thumb
  58              		.thumb_func
  59              		.type	readBatteryVoltage, %function
  60              	readBatteryVoltage:
  61              	.LFB64:
 196:main.c        **** 
 197:main.c        **** float readBatteryVoltage() {
  62              		.loc 1 197 0
  63              		.cfi_startproc
  64              		@ args = 0, pretend = 0, frame = 0
  65              		@ frame_needed = 0, uses_anonymous_args = 0
  66 0000 08B5     		push	{r3, lr}
  67              		.cfi_def_cfa_offset 8
  68              		.cfi_offset 3, -8
  69              		.cfi_offset 14, -4
 198:main.c        **** 
 199:main.c        ****   /* Sense the battery voltage. We simulate this process by reading out the
 200:main.c        ****    * potentiometer (variable resistor) and converting its value into a voltage
 201:main.c        ****    * level between 0 and 14 volts
 202:main.c        ****    */
 203:main.c        ****   int r_value;
 204:main.c        ****   float	voltage;
 205:main.c        **** 
 206:main.c        ****   r_value = readResistorValue();
  70              		.loc 1 206 0
  71 0002 FFF7FEFF 		bl	readResistorValue
  72              	.LVL2:
 207:main.c        **** 
 208:main.c        ****   /* TO_DO: Exercise 3d:
 209:main.c        ****    * Fill in the code for this function to simulate the sensing of the battery
 210:main.c        ****    * voltage. Convert the reading from the potentiometer into a digital voltage
 211:main.c        ****    * value between 0.0 and 14.0 volts
 212:main.c        ****    */
 213:main.c        ****    voltage = r_value * (14.0 / 255);
ARM GAS  C:\Users\bernw\AppData\Local\Temp\cc42BCXf.s 			page 6


  73              		.loc 1 213 0
  74 0006 FFF7FEFF 		bl	__aeabi_i2d
  75              	.LVL3:
  76 000a 05A3     		adr	r3, .L6
  77 000c D3E90023 		ldrd	r2, [r3]
  78 0010 FFF7FEFF 		bl	__aeabi_dmul
  79              	.LVL4:
  80 0014 FFF7FEFF 		bl	__aeabi_d2f
  81              	.LVL5:
 214:main.c        **** 
 215:main.c        ****   /* Temporary setting for debugging purposes */
 216:main.c        ****   //voltage = 12.4;
 217:main.c        **** 
 218:main.c        ****   return voltage;
 219:main.c        **** 
 220:main.c        **** }
  82              		.loc 1 220 0
  83 0018 08BD     		pop	{r3, pc}
  84              	.L7:
  85 001a 00BFAFF3 		.align	3
  85      0080
  86              	.L6:
  87 0020 1C1C1C1C 		.word	471604252
  88 0024 1C1CAC3F 		.word	1068243996
  89              		.cfi_endproc
  90              	.LFE64:
  91              		.size	readBatteryVoltage, .-readBatteryVoltage
  92              		.global	__aeabi_fcmplt
  93              		.global	__aeabi_fcmpgt
  94              		.section	.text.readBatteryLevel,"ax",%progbits
  95              		.align	2
  96              		.global	readBatteryLevel
  97              		.thumb
  98              		.thumb_func
  99              		.type	readBatteryLevel, %function
 100              	readBatteryLevel:
 101              	.LFB65:
 221:main.c        **** 
 222:main.c        **** BATT_LEVELS readBatteryLevel() {
 102              		.loc 1 222 0
 103              		.cfi_startproc
 104              		@ args = 0, pretend = 0, frame = 0
 105              		@ frame_needed = 0, uses_anonymous_args = 0
 106 0000 38B5     		push	{r3, r4, r5, lr}
 107              		.cfi_def_cfa_offset 16
 108              		.cfi_offset 3, -16
 109              		.cfi_offset 4, -12
 110              		.cfi_offset 5, -8
 111              		.cfi_offset 14, -4
 223:main.c        **** 
 224:main.c        ****   /* Determines the current battery level according to its voltage reading */
 225:main.c        ****   float voltage;
 226:main.c        ****   BATT_LEVELS level;
 227:main.c        **** 
 228:main.c        ****   voltage = readBatteryVoltage();
 112              		.loc 1 228 0
 113 0002 FFF7FEFF 		bl	readBatteryVoltage
ARM GAS  C:\Users\bernw\AppData\Local\Temp\cc42BCXf.s 			page 7


 114              	.LVL6:
 115 0006 0546     		mov	r5, r0
 116              	.LVL7:
 229:main.c        **** 
 230:main.c        ****   /* TO_DO: Exercise 3e
 231:main.c        ****    * Fill in the code to convert the voltage reading to a battery level
 232:main.c        ****    */
 233:main.c        **** /*
 234:main.c        ****     if(voltage > 11){
 235:main.c        ****       level = LEVEL_FULL;
 236:main.c        ****     }else if(voltage > 7){
 237:main.c        ****       level = LEVEL_MEDIUM;
 238:main.c        ****     }else if(voltage > 3){
 239:main.c        ****       level = LEVEL_LOW;
 240:main.c        ****     }else if(voltage < 1){
 241:main.c        ****       level = LEVEL_UNKNOWN;
 242:main.c        ****     }*/
 243:main.c        ****     if(voltage < 0.5){
 117              		.loc 1 243 0
 118 0008 4FF07C51 		mov	r1, #1056964608
 119 000c FFF7FEFF 		bl	__aeabi_fcmplt
 120              	.LVL8:
 121 0010 78B9     		cbnz	r0, .L10
 244:main.c        ****       level = LEVEL_UNKNOWN;
 245:main.c        ****     }else if(voltage < 3.5){
 122              		.loc 1 245 0
 123 0012 0C49     		ldr	r1, .L15
 124 0014 2846     		mov	r0, r5
 125 0016 FFF7FEFF 		bl	__aeabi_fcmplt
 126              	.LVL9:
 127 001a 60B9     		cbnz	r0, .L11
 246:main.c        ****       level = LEVEL_LOW;
 247:main.c        ****     }else if(voltage < 7){
 128              		.loc 1 247 0
 129 001c 0A49     		ldr	r1, .L15+4
 130 001e 2846     		mov	r0, r5
 131 0020 FFF7FEFF 		bl	__aeabi_fcmplt
 132              	.LVL10:
 133 0024 48B9     		cbnz	r0, .L12
 248:main.c        ****       level = LEVEL_MEDIUM;
 249:main.c        ****     }else if(voltage > 10.5){
 134              		.loc 1 249 0
 135 0026 0949     		ldr	r1, .L15+8
 136 0028 2846     		mov	r0, r5
 137 002a FFF7FEFF 		bl	__aeabi_fcmpgt
 138              	.LVL11:
 139 002e 30B9     		cbnz	r0, .L13
 140 0030 06E0     		b	.L9
 141              	.L10:
 244:main.c        ****     }else if(voltage < 3.5){
 142              		.loc 1 244 0
 143 0032 0024     		movs	r4, #0
 144 0034 04E0     		b	.L9
 145              	.L11:
 246:main.c        ****       level = LEVEL_LOW;
 146              		.loc 1 246 0
 147 0036 0324     		movs	r4, #3
ARM GAS  C:\Users\bernw\AppData\Local\Temp\cc42BCXf.s 			page 8


 148 0038 02E0     		b	.L9
 149              	.L12:
 248:main.c        ****       level = LEVEL_MEDIUM;
 150              		.loc 1 248 0
 151 003a 0224     		movs	r4, #2
 152 003c 00E0     		b	.L9
 153              	.L13:
 250:main.c        ****       level = LEVEL_FULL;
 154              		.loc 1 250 0
 155 003e 0124     		movs	r4, #1
 156              	.L9:
 157              	.LVL12:
 251:main.c        ****     }
 252:main.c        **** 
 253:main.c        **** 
 254:main.c        ****   /* Temporary setting for debugging purposes */
 255:main.c        ****   //level = LEVEL_MEDIUM;
 256:main.c        **** 
 257:main.c        ****   return level;
 258:main.c        **** 
 259:main.c        **** }
 158              		.loc 1 259 0
 159 0040 2046     		mov	r0, r4
 160 0042 38BD     		pop	{r3, r4, r5, pc}
 161              	.LVL13:
 162              	.L16:
 163              		.align	2
 164              	.L15:
 165 0044 00006040 		.word	1080033280
 166 0048 0000E040 		.word	1088421888
 167 004c 00002841 		.word	1093140480
 168              		.cfi_endproc
 169              	.LFE65:
 170              		.size	readBatteryLevel, .-readBatteryLevel
 171              		.section	.text.setBatteryIndicator,"ax",%progbits
 172              		.align	2
 173              		.global	setBatteryIndicator
 174              		.thumb
 175              		.thumb_func
 176              		.type	setBatteryIndicator, %function
 177              	setBatteryIndicator:
 178              	.LFB66:
 260:main.c        **** 
 261:main.c        **** void setBatteryIndicator(BATT_LEVELS level) {
 179              		.loc 1 261 0
 180              		.cfi_startproc
 181              		@ args = 0, pretend = 0, frame = 0
 182              		@ frame_needed = 0, uses_anonymous_args = 0
 183              	.LVL14:
 184 0000 08B5     		push	{r3, lr}
 185              		.cfi_def_cfa_offset 8
 186              		.cfi_offset 3, -8
 187              		.cfi_offset 14, -4
 262:main.c        **** 
 263:main.c        ****   /* Lights up three LEDs to indicate the battery level as follows:
 264:main.c        ****    *   One LED: battery level is low
 265:main.c        ****    *   Two consecutive LEDs: battery level is medium
ARM GAS  C:\Users\bernw\AppData\Local\Temp\cc42BCXf.s 			page 9


 266:main.c        ****    *   Three consecutive LEDs: battery level is full
 267:main.c        ****    *   Two not consecutive LEDs: battery level is unknown
 268:main.c        ****    */
 269:main.c        **** 
 270:main.c        ****   /* TO_DO: Exercise 2b
 271:main.c        ****    * Write the code for this function
 272:main.c        ****    */
 273:main.c        ****   switch(level)
 188              		.loc 1 273 0
 189 0002 0328     		cmp	r0, #3
 190 0004 2AD8     		bhi	.L17
 191 0006 DFE800F0 		tbb	[pc, r0]
 192              	.L20:
 193 000a 02       		.byte	(.L19-.L20)/2
 194 000b 0C       		.byte	(.L21-.L20)/2
 195 000c 16       		.byte	(.L22-.L20)/2
 196 000d 20       		.byte	(.L23-.L20)/2
 197              		.p2align 1
 198              	.L19:
 274:main.c        **** {
 275:main.c        ****   case LEVEL_UNKNOWN:
 276:main.c        ****     LED_1_Write(1);
 199              		.loc 1 276 0
 200 000e 0120     		movs	r0, #1
 201              	.LVL15:
 202 0010 FFF7FEFF 		bl	LED_1_Write
 203              	.LVL16:
 277:main.c        ****     LED_2_Write(0);
 204              		.loc 1 277 0
 205 0014 0020     		movs	r0, #0
 206 0016 FFF7FEFF 		bl	LED_2_Write
 207              	.LVL17:
 278:main.c        ****     LED_3_Write(1);
 208              		.loc 1 278 0
 209 001a 0120     		movs	r0, #1
 210 001c FFF7FEFF 		bl	LED_3_Write
 211              	.LVL18:
 279:main.c        ****     break;
 212              		.loc 1 279 0
 213 0020 08BD     		pop	{r3, pc}
 214              	.LVL19:
 215              	.L21:
 280:main.c        ****     
 281:main.c        ****    case LEVEL_FULL:
 282:main.c        ****     LED_1_Write(1);
 216              		.loc 1 282 0
 217 0022 0120     		movs	r0, #1
 218              	.LVL20:
 219 0024 FFF7FEFF 		bl	LED_1_Write
 220              	.LVL21:
 283:main.c        ****     LED_2_Write(1);
 221              		.loc 1 283 0
 222 0028 0120     		movs	r0, #1
 223 002a FFF7FEFF 		bl	LED_2_Write
 224              	.LVL22:
 284:main.c        ****     LED_3_Write(1);
 225              		.loc 1 284 0
ARM GAS  C:\Users\bernw\AppData\Local\Temp\cc42BCXf.s 			page 10


 226 002e 0120     		movs	r0, #1
 227 0030 FFF7FEFF 		bl	LED_3_Write
 228              	.LVL23:
 285:main.c        ****     break;
 229              		.loc 1 285 0
 230 0034 08BD     		pop	{r3, pc}
 231              	.LVL24:
 232              	.L22:
 286:main.c        ****     
 287:main.c        ****     case LEVEL_MEDIUM:
 288:main.c        ****     LED_1_Write(1);
 233              		.loc 1 288 0
 234 0036 0120     		movs	r0, #1
 235              	.LVL25:
 236 0038 FFF7FEFF 		bl	LED_1_Write
 237              	.LVL26:
 289:main.c        ****     LED_2_Write(1);
 238              		.loc 1 289 0
 239 003c 0120     		movs	r0, #1
 240 003e FFF7FEFF 		bl	LED_2_Write
 241              	.LVL27:
 290:main.c        ****     LED_3_Write(0);
 242              		.loc 1 290 0
 243 0042 0020     		movs	r0, #0
 244 0044 FFF7FEFF 		bl	LED_3_Write
 245              	.LVL28:
 291:main.c        ****     break;
 246              		.loc 1 291 0
 247 0048 08BD     		pop	{r3, pc}
 248              	.LVL29:
 249              	.L23:
 292:main.c        ****     
 293:main.c        ****     case LEVEL_LOW:
 294:main.c        ****     LED_1_Write(1);
 250              		.loc 1 294 0
 251 004a 0120     		movs	r0, #1
 252              	.LVL30:
 253 004c FFF7FEFF 		bl	LED_1_Write
 254              	.LVL31:
 295:main.c        ****     LED_2_Write(0);
 255              		.loc 1 295 0
 256 0050 0020     		movs	r0, #0
 257 0052 FFF7FEFF 		bl	LED_2_Write
 258              	.LVL32:
 296:main.c        ****     LED_3_Write(0);
 259              		.loc 1 296 0
 260 0056 0020     		movs	r0, #0
 261 0058 FFF7FEFF 		bl	LED_3_Write
 262              	.LVL33:
 263              	.L17:
 264 005c 08BD     		pop	{r3, pc}
 265              		.cfi_endproc
 266              	.LFE66:
 267              		.size	setBatteryIndicator, .-setBatteryIndicator
 268 005e 00BF     		.section	.text.setChargerIndicator,"ax",%progbits
 269              		.align	2
 270              		.global	setChargerIndicator
ARM GAS  C:\Users\bernw\AppData\Local\Temp\cc42BCXf.s 			page 11


 271              		.thumb
 272              		.thumb_func
 273              		.type	setChargerIndicator, %function
 274              	setChargerIndicator:
 275              	.LFB67:
 297:main.c        ****     break;
 298:main.c        ****     
 299:main.c        ****     default:
 300:main.c        ****           ;
 301:main.c        ****    }
 302:main.c        **** 
 303:main.c        **** }
 304:main.c        **** 
 305:main.c        **** void setChargerIndicator(CHARGE_STATES state) {
 276              		.loc 1 305 0
 277              		.cfi_startproc
 278              		@ args = 0, pretend = 0, frame = 0
 279              		@ frame_needed = 0, uses_anonymous_args = 0
 280              	.LVL34:
 281 0000 08B5     		push	{r3, lr}
 282              		.cfi_def_cfa_offset 8
 283              		.cfi_offset 3, -8
 284              		.cfi_offset 14, -4
 306:main.c        **** 
 307:main.c        ****   /* Lights up the charger led to indicate its state as follows:
 308:main.c        ****    *   LED constantly on for no charge
 309:main.c        ****    *   LED blinks slow for regular charging
 310:main.c        ****    *   LED blinks fast for fast charge
 311:main.c        ****    *   LED off for unknown state
 312:main.c        ****    */
 313:main.c        **** 
 314:main.c        ****   /* TO_DO: Exercise 4c
 315:main.c        ****    * Write code for this function. Make sure you use a PWM module
 316:main.c        ****    */
 317:main.c        ****   switch(state)
 285              		.loc 1 317 0
 286 0002 0328     		cmp	r0, #3
 287 0004 12D8     		bhi	.L25
 288 0006 DFE800F0 		tbb	[pc, r0]
 289              	.L28:
 290 000a 0E       		.byte	(.L27-.L28)/2
 291 000b 0A       		.byte	(.L29-.L28)/2
 292 000c 06       		.byte	(.L30-.L28)/2
 293 000d 02       		.byte	(.L31-.L28)/2
 294              		.p2align 1
 295              	.L31:
 318:main.c        **** {
 319:main.c        ****     case NO_CHARGE:
 320:main.c        ****     PWM_1_WriteCompare(255);
 296              		.loc 1 320 0
 297 000e FF20     		movs	r0, #255
 298              	.LVL35:
 299 0010 FFF7FEFF 		bl	PWM_1_WriteCompare
 300              	.LVL36:
 321:main.c        ****     break;
 301              		.loc 1 321 0
 302 0014 08BD     		pop	{r3, pc}
ARM GAS  C:\Users\bernw\AppData\Local\Temp\cc42BCXf.s 			page 12


 303              	.LVL37:
 304              	.L30:
 322:main.c        ****     
 323:main.c        ****     case REGULAR_CHARGE:
 324:main.c        ****     PWM_1_WriteCompare(65);
 305              		.loc 1 324 0
 306 0016 4120     		movs	r0, #65
 307              	.LVL38:
 308 0018 FFF7FEFF 		bl	PWM_1_WriteCompare
 309              	.LVL39:
 325:main.c        ****     break;
 310              		.loc 1 325 0
 311 001c 08BD     		pop	{r3, pc}
 312              	.LVL40:
 313              	.L29:
 326:main.c        ****     
 327:main.c        ****     case FAST_CHARGE:
 328:main.c        ****     PWM_1_WriteCompare(192);
 314              		.loc 1 328 0
 315 001e C020     		movs	r0, #192
 316              	.LVL41:
 317 0020 FFF7FEFF 		bl	PWM_1_WriteCompare
 318              	.LVL42:
 329:main.c        ****     break;
 319              		.loc 1 329 0
 320 0024 08BD     		pop	{r3, pc}
 321              	.LVL43:
 322              	.L27:
 330:main.c        ****     
 331:main.c        ****     case UNKOWN_CHARGE:
 332:main.c        ****     PWM_1_WriteCompare(0);
 323              		.loc 1 332 0
 324 0026 0020     		movs	r0, #0
 325              	.LVL44:
 326 0028 FFF7FEFF 		bl	PWM_1_WriteCompare
 327              	.LVL45:
 328              	.L25:
 329 002c 08BD     		pop	{r3, pc}
 330              		.cfi_endproc
 331              	.LFE67:
 332              		.size	setChargerIndicator, .-setChargerIndicator
 333 002e 00BF     		.section	.text.initBatterySensor,"ax",%progbits
 334              		.align	2
 335              		.global	initBatterySensor
 336              		.thumb
 337              		.thumb_func
 338              		.type	initBatterySensor, %function
 339              	initBatterySensor:
 340              	.LFB68:
 333:main.c        ****     break;
 334:main.c        ****     
 335:main.c        ****     default:
 336:main.c        ****           ;
 337:main.c        **** }
 338:main.c        **** 
 339:main.c        **** }
 340:main.c        **** 
ARM GAS  C:\Users\bernw\AppData\Local\Temp\cc42BCXf.s 			page 13


 341:main.c        **** void initBatterySensor(void) {
 341              		.loc 1 341 0
 342              		.cfi_startproc
 343              		@ args = 0, pretend = 0, frame = 0
 344              		@ frame_needed = 0, uses_anonymous_args = 0
 345 0000 08B5     		push	{r3, lr}
 346              		.cfi_def_cfa_offset 8
 347              		.cfi_offset 3, -8
 348              		.cfi_offset 14, -4
 342:main.c        **** 
 343:main.c        ****   /* TO_DO: 
 344:main.c        ****    * Put initialization code here (if you need any)
 345:main.c        ****    */
 346:main.c        ****   ADC_SAR_1_Start(); // Start het ADC_SAR component
 349              		.loc 1 346 0
 350 0002 FFF7FEFF 		bl	ADC_SAR_1_Start
 351              	.LVL46:
 347:main.c        ****   ADC_SAR_1_StartConvert() ; // Start de ADC conversie continu in free-running mode.
 352              		.loc 1 347 0
 353 0006 FFF7FEFF 		bl	ADC_SAR_1_StartConvert
 354              	.LVL47:
 355 000a 08BD     		pop	{r3, pc}
 356              		.cfi_endproc
 357              	.LFE68:
 358              		.size	initBatterySensor, .-initBatterySensor
 359              		.section	.text.initBatteryLevelIndicator,"ax",%progbits
 360              		.align	2
 361              		.global	initBatteryLevelIndicator
 362              		.thumb
 363              		.thumb_func
 364              		.type	initBatteryLevelIndicator, %function
 365              	initBatteryLevelIndicator:
 366              	.LFB69:
 348:main.c        **** 
 349:main.c        **** }
 350:main.c        **** 
 351:main.c        **** void initBatteryLevelIndicator(void) {
 367              		.loc 1 351 0
 368              		.cfi_startproc
 369              		@ args = 0, pretend = 0, frame = 0
 370              		@ frame_needed = 0, uses_anonymous_args = 0
 371              		@ link register save eliminated.
 372 0000 7047     		bx	lr
 373              		.cfi_endproc
 374              	.LFE69:
 375              		.size	initBatteryLevelIndicator, .-initBatteryLevelIndicator
 376 0002 00BF     		.section	.text.initChargerStateIndicator,"ax",%progbits
 377              		.align	2
 378              		.global	initChargerStateIndicator
 379              		.thumb
 380              		.thumb_func
 381              		.type	initChargerStateIndicator, %function
 382              	initChargerStateIndicator:
 383              	.LFB70:
 352:main.c        **** 
 353:main.c        ****   /* TO_DO: 
 354:main.c        ****    * Put initialization code here (if you need any)
ARM GAS  C:\Users\bernw\AppData\Local\Temp\cc42BCXf.s 			page 14


 355:main.c        ****    */
 356:main.c        ****   
 357:main.c        **** 
 358:main.c        **** }
 359:main.c        **** 
 360:main.c        **** void initChargerStateIndicator(void) {
 384              		.loc 1 360 0
 385              		.cfi_startproc
 386              		@ args = 0, pretend = 0, frame = 0
 387              		@ frame_needed = 0, uses_anonymous_args = 0
 388              		.loc 1 360 0
 389 0000 08B5     		push	{r3, lr}
 390              		.cfi_def_cfa_offset 8
 391              		.cfi_offset 3, -8
 392              		.cfi_offset 14, -4
 361:main.c        **** 
 362:main.c        ****   /* TO_DO: 
 363:main.c        ****    * Put initialization code here (if you need any)
 364:main.c        ****    */
 365:main.c        ****   PWM_1_Start();
 393              		.loc 1 365 0
 394 0002 FFF7FEFF 		bl	PWM_1_Start
 395              	.LVL48:
 366:main.c        ****   Clock_1_Start();
 396              		.loc 1 366 0
 397 0006 FFF7FEFF 		bl	Clock_1_Start
 398              	.LVL49:
 399 000a 08BD     		pop	{r3, pc}
 400              		.cfi_endproc
 401              	.LFE70:
 402              		.size	initChargerStateIndicator, .-initChargerStateIndicator
 403              		.section	.text.batteryChargerInit,"ax",%progbits
 404              		.align	2
 405              		.global	batteryChargerInit
 406              		.thumb
 407              		.thumb_func
 408              		.type	batteryChargerInit, %function
 409              	batteryChargerInit:
 410              	.LFB71:
 367:main.c        **** 
 368:main.c        **** }
 369:main.c        **** 
 370:main.c        **** void batteryChargerInit(void) {
 411              		.loc 1 370 0
 412              		.cfi_startproc
 413              		@ args = 0, pretend = 0, frame = 0
 414              		@ frame_needed = 0, uses_anonymous_args = 0
 415 0000 08B5     		push	{r3, lr}
 416              		.cfi_def_cfa_offset 8
 417              		.cfi_offset 3, -8
 418              		.cfi_offset 14, -4
 371:main.c        **** 
 372:main.c        ****   initBatterySensor();
 419              		.loc 1 372 0
 420 0002 FFF7FEFF 		bl	initBatterySensor
 421              	.LVL50:
 373:main.c        ****   initBatteryLevelIndicator();
ARM GAS  C:\Users\bernw\AppData\Local\Temp\cc42BCXf.s 			page 15


 374:main.c        ****   initChargerStateIndicator();
 422              		.loc 1 374 0
 423 0006 FFF7FEFF 		bl	initChargerStateIndicator
 424              	.LVL51:
 425 000a 08BD     		pop	{r3, pc}
 426              		.cfi_endproc
 427              	.LFE71:
 428              		.size	batteryChargerInit, .-batteryChargerInit
 429              		.section	.text.main,"ax",%progbits
 430              		.align	2
 431              		.global	main
 432              		.thumb
 433              		.thumb_func
 434              		.type	main, %function
 435              	main:
 436              	.LFB72:
 375:main.c        **** 
 376:main.c        **** }
 377:main.c        **** 
 378:main.c        **** 
 379:main.c        **** int main(void) {
 437              		.loc 1 379 0
 438              		.cfi_startproc
 439              		@ args = 0, pretend = 0, frame = 0
 440              		@ frame_needed = 0, uses_anonymous_args = 0
 441 0000 70B5     		push	{r4, r5, r6, lr}
 442              		.cfi_def_cfa_offset 16
 443              		.cfi_offset 4, -16
 444              		.cfi_offset 5, -12
 445              		.cfi_offset 6, -8
 446              		.cfi_offset 14, -4
 447              	.LVL52:
 380:main.c        **** 
 381:main.c        ****   /* Variable declaration */
 382:main.c        ****   BATT_LEVELS last_battery_level = LEVEL_UNKNOWN, cur_battery_level = LEVEL_UNKNOWN;
 383:main.c        ****   CHARGE_STATES charger_state = UNKOWN_CHARGE;
 384:main.c        **** 
 385:main.c        ****   /* Enable global interrupts */
 386:main.c        ****   CyGlobalIntEnable;
 448              		.loc 1 386 0
 449              		.syntax unified
 450              	@ 386 "main.c" 1
 451 0002 62B6     		CPSIE   i
 452              	@ 0 "" 2
 387:main.c        **** 
 388:main.c        ****   /* Place your initialization/startup code here */
 389:main.c        ****   batteryChargerInit();
 453              		.loc 1 389 0
 454              		.thumb
 455              		.syntax unified
 456 0004 FFF7FEFF 		bl	batteryChargerInit
 457              	.LVL53:
 383:main.c        **** 
 458              		.loc 1 383 0
 459 0008 0026     		movs	r6, #0
 382:main.c        ****   CHARGE_STATES charger_state = UNKOWN_CHARGE;
 460              		.loc 1 382 0
ARM GAS  C:\Users\bernw\AppData\Local\Temp\cc42BCXf.s 			page 16


 461 000a 3546     		mov	r5, r6
 462              	.LVL54:
 463              	.L41:
 390:main.c        ****   
 391:main.c        **** 
 392:main.c        ****   for(;;) {
 393:main.c        **** 
 394:main.c        ****     /* Place your application code here */
 395:main.c        ****     cur_battery_level = readBatteryLevel();
 464              		.loc 1 395 0
 465 000c FFF7FEFF 		bl	readBatteryLevel
 466              	.LVL55:
 467 0010 0446     		mov	r4, r0
 468              	.LVL56:
 396:main.c        **** 
 397:main.c        ****     /* The battery level has changed, get to work */
 398:main.c        ****     if (cur_battery_level != last_battery_level) {
 469              		.loc 1 398 0
 470 0012 8542     		cmp	r5, r0
 471 0014 12D0     		beq	.L42
 399:main.c        **** 
 400:main.c        ****       setBatteryIndicator(cur_battery_level);
 472              		.loc 1 400 0
 473 0016 FFF7FEFF 		bl	setBatteryIndicator
 474              	.LVL57:
 401:main.c        **** 
 402:main.c        ****       switch (cur_battery_level) {
 475              		.loc 1 402 0
 476 001a 022C     		cmp	r4, #2
 477 001c 04D0     		beq	.L44
 478 001e 032C     		cmp	r4, #3
 479 0020 06D0     		beq	.L48
 480 0022 012C     		cmp	r4, #1
 481 0024 05D1     		bne	.L45
 482 0026 01E0     		b	.L46
 483              	.L44:
 484              	.LVL58:
 403:main.c        **** 
 404:main.c        ****         case LEVEL_LOW:
 405:main.c        ****           charger_state = FAST_CHARGE;
 406:main.c        ****           break;
 407:main.c        **** 
 408:main.c        ****         case LEVEL_MEDIUM:
 409:main.c        ****           charger_state = REGULAR_CHARGE;
 485              		.loc 1 409 0
 486 0028 0226     		movs	r6, #2
 410:main.c        ****           break;
 487              		.loc 1 410 0
 488 002a 02E0     		b	.L45
 489              	.LVL59:
 490              	.L46:
 411:main.c        **** 
 412:main.c        ****         case LEVEL_FULL:
 413:main.c        ****           charger_state = NO_CHARGE;
 491              		.loc 1 413 0
 492 002c 0326     		movs	r6, #3
 414:main.c        ****           break;
ARM GAS  C:\Users\bernw\AppData\Local\Temp\cc42BCXf.s 			page 17


 493              		.loc 1 414 0
 494 002e 00E0     		b	.L45
 495              	.LVL60:
 496              	.L48:
 405:main.c        ****           break;
 497              		.loc 1 405 0
 498 0030 0126     		movs	r6, #1
 499              	.LVL61:
 500              	.L45:
 415:main.c        **** 
 416:main.c        ****         default:
 417:main.c        ****           ;
 418:main.c        **** 
 419:main.c        ****       }
 420:main.c        **** 
 421:main.c        ****       setChargerIndicator(charger_state);
 501              		.loc 1 421 0
 502 0032 3046     		mov	r0, r6
 503 0034 FFF7FEFF 		bl	setChargerIndicator
 504              	.LVL62:
 422:main.c        ****       last_battery_level = cur_battery_level;
 505              		.loc 1 422 0
 506 0038 2546     		mov	r5, r4
 507 003a E7E7     		b	.L41
 508              	.LVL63:
 509              	.L42:
 423:main.c        **** 
 424:main.c        ****     }
 425:main.c        **** 
 426:main.c        ****     /* The battery level has not changed, sleep for a while */
 427:main.c        ****     else { 
 428:main.c        **** 
 429:main.c        ****       /* TO_DO: Exercise 1c
 430:main.c        ****        * Let the program sleep for a while
 431:main.c        ****        */
 432:main.c        ****       CyDelay(500);
 510              		.loc 1 432 0
 511 003c 4FF4FA70 		mov	r0, #500
 512              	.LVL64:
 513 0040 FFF7FEFF 		bl	CyDelay
 514              	.LVL65:
 515 0044 E2E7     		b	.L41
 516              		.cfi_endproc
 517              	.LFE72:
 518              		.size	main, .-main
 519 0046 00BF     		.text
 520              	.Letext0:
 521              		.file 2 "c:\\program files (x86)\\cypress\\psoc creator\\4.2\\psoc creator\\import\\gnu\\arm\\5.4.
 522              		.file 3 "c:\\program files (x86)\\cypress\\psoc creator\\4.2\\psoc creator\\import\\gnu\\arm\\5.4.
 523              		.file 4 "Generated_Source\\PSoC5/ADC_SAR_1.h"
 524              		.file 5 "Generated_Source\\PSoC5/LED_1.h"
 525              		.file 6 "Generated_Source\\PSoC5/LED_2.h"
 526              		.file 7 "Generated_Source\\PSoC5/LED_3.h"
 527              		.file 8 "Generated_Source\\PSoC5/PWM_1.h"
 528              		.file 9 "Generated_Source\\PSoC5/Clock_1.h"
 529              		.file 10 "Generated_Source\\PSoC5/CyLib.h"
 530              		.file 11 "Generated_Source\\PSoC5/core_cm3.h"
ARM GAS  C:\Users\bernw\AppData\Local\Temp\cc42BCXf.s 			page 18

